target datalayout = "e-m:e-p270:32:32-p271:32:32-p272:64:64-i64:64-i128:128-f80:128-n8:16:32:64-S128"
target triple = "x86_64-pc-linux-gnu"

%struct.write_midx_context = type { ptr, i64, i64, ptr, ptr, ptr, i32, ptr, i64, ptr, ptr, i8, i32, i32, i32, i32, ptr, ptr }
%struct.pack_midx_entry = type { %struct.object_id, i32, i64, i64, i8 }
%struct.object_id = type { [32 x i8], i32 }

@.str.16 = private unnamed_addr constant [13 x i8] c"midx-write.c\00", align 1
@.str.51 = private unnamed_addr constant [47 x i8] c"object %s is in an expired pack with int-id %d\00", align 1
@.str.52 = private unnamed_addr constant [83 x i8] c"object %s requires a large offset (%lx) but the MIDX is not writing large offsets!\00", align 1

; Function Attrs: inlinehint nounwind uwtable
define internal i32 @default_swab32(i32 noundef %0) #4 {
  %2 = alloca i32, align 4
  store i32 %0, ptr %2, align 4, !tbaa !11
  %3 = load i32, ptr %2, align 4, !tbaa !11
  %4 = and i32 %3, -16777216
  %5 = lshr i32 %4, 24
  %6 = load i32, ptr %2, align 4, !tbaa !11
  %7 = and i32 %6, 16711680
  %8 = lshr i32 %7, 8
  %9 = or i32 %5, %8
  %10 = load i32, ptr %2, align 4, !tbaa !11
  %11 = and i32 %10, 65280
  %12 = shl i32 %11, 8
  %13 = or i32 %9, %12
  %14 = load i32, ptr %2, align 4, !tbaa !11
  %15 = and i32 %14, 255
  %16 = shl i32 %15, 24
  %17 = or i32 %13, %16
  ret i32 %17
}

; Function Attrs: inlinehint nounwind uwtable
define internal i32 @git_bswap32(i32 noundef %0) #4 {
  %2 = alloca i32, align 4
  %3 = alloca i32, align 4
  store i32 %0, ptr %2, align 4, !tbaa !11
  call void @llvm.lifetime.start.p0(i64 4, ptr %3) #11
  %4 = load i32, ptr %2, align 4, !tbaa !11
  %5 = call i1 @llvm.is.constant.i32(i32 %4)
  br i1 %5, label %6, label %9

6:                                                ; preds = %1
  %7 = load i32, ptr %2, align 4, !tbaa !11
  %8 = call i32 @default_swab32(i32 noundef %7)
  store i32 %8, ptr %3, align 4, !tbaa !11
  br label %12

9:                                                ; preds = %1
  %10 = load i32, ptr %2, align 4, !tbaa !11
  %11 = call i32 asm "bswap $0", "=r,0,~{dirflag},~{fpsr},~{flags}"(i32 %10) #15, !srcloc !206
  store i32 %11, ptr %3, align 4, !tbaa !11
  br label %12

12:                                               ; preds = %9, %6
  %13 = load i32, ptr %3, align 4, !tbaa !11
  call void @llvm.lifetime.end.p0(i64 4, ptr %3) #11
  ret i32 %13
}

; Function Attrs: inlinehint nounwind uwtable
define internal void @hashwrite_be32(ptr noundef %0, i32 noundef %1) #4 {
  %3 = alloca ptr, align 8
  %4 = alloca i32, align 4
  store ptr %0, ptr %3, align 8, !tbaa !15
  store i32 %1, ptr %4, align 4, !tbaa !11
  %5 = load i32, ptr %4, align 4, !tbaa !11
  %6 = call i32 @git_bswap32(i32 noundef %5)
  store i32 %6, ptr %4, align 4, !tbaa !11
  %7 = load ptr, ptr %3, align 8, !tbaa !15
  call void @hashwrite(ptr noundef %7, ptr noundef %4, i32 noundef 4)
  ret void
}

; Function Attrs: nounwind uwtable
define internal i32 @write_midx_object_offsets(ptr noundef %0, ptr noundef %1) #0 {
  %3 = alloca ptr, align 8
  %4 = alloca ptr, align 8
  %5 = alloca ptr, align 8
  %6 = alloca ptr, align 8
  %7 = alloca i32, align 4
  %8 = alloca i32, align 4
  %9 = alloca ptr, align 8
  store ptr %0, ptr %3, align 8, !tbaa !15
  store ptr %1, ptr %4, align 8, !tbaa !137
  call void @llvm.lifetime.start.p0(i64 8, ptr %5) #11
  %10 = load ptr, ptr %4, align 8, !tbaa !137
  store ptr %10, ptr %5, align 8, !tbaa !133
  call void @llvm.lifetime.start.p0(i64 8, ptr %6) #11
  %11 = load ptr, ptr %5, align 8, !tbaa !133
  %12 = getelementptr inbounds nuw %struct.write_midx_context, ptr %11, i32 0, i32 7
  %13 = load ptr, ptr %12, align 8, !tbaa !75
  store ptr %13, ptr %6, align 8, !tbaa !152
  call void @llvm.lifetime.start.p0(i64 4, ptr %7) #11
  call void @llvm.lifetime.start.p0(i64 4, ptr %8) #11
  store i32 0, ptr %8, align 4, !tbaa !11
  store i32 0, ptr %7, align 4, !tbaa !11
  br label %14

14:                                               ; preds = %97, %2
  %15 = load i32, ptr %7, align 4, !tbaa !11
  %16 = zext i32 %15 to i64
  %17 = load ptr, ptr %5, align 8, !tbaa !133
  %18 = getelementptr inbounds nuw %struct.write_midx_context, ptr %17, i32 0, i32 8
  %19 = load i64, ptr %18, align 8, !tbaa !74
  %20 = icmp ult i64 %16, %19
  br i1 %20, label %21, label %100

21:                                               ; preds = %14
  call void @llvm.lifetime.start.p0(i64 8, ptr %9) #11
  %22 = load ptr, ptr %6, align 8, !tbaa !152
  %23 = getelementptr inbounds nuw %struct.pack_midx_entry, ptr %22, i32 1
  store ptr %23, ptr %6, align 8, !tbaa !152
  store ptr %22, ptr %9, align 8, !tbaa !152
  %24 = load ptr, ptr %5, align 8, !tbaa !133
  %25 = getelementptr inbounds nuw %struct.write_midx_context, ptr %24, i32 0, i32 9
  %26 = load ptr, ptr %25, align 8, !tbaa !85
  %27 = load ptr, ptr %9, align 8, !tbaa !152
  %28 = getelementptr inbounds nuw %struct.pack_midx_entry, ptr %27, i32 0, i32 1
  %29 = load i32, ptr %28, align 4, !tbaa !156
  %30 = zext i32 %29 to i64
  %31 = getelementptr inbounds nuw i32, ptr %26, i64 %30
  %32 = load i32, ptr %31, align 4, !tbaa !11
  %33 = icmp eq i32 %32, -1
  br i1 %33, label %34, label %41

34:                                               ; preds = %21
  %35 = load ptr, ptr %9, align 8, !tbaa !152
  %36 = getelementptr inbounds nuw %struct.pack_midx_entry, ptr %35, i32 0, i32 0
  %37 = call ptr @oid_to_hex(ptr noundef %36)
  %38 = load ptr, ptr %9, align 8, !tbaa !152
  %39 = getelementptr inbounds nuw %struct.pack_midx_entry, ptr %38, i32 0, i32 1
  %40 = load i32, ptr %39, align 4, !tbaa !156
  call void (ptr, i32, ptr, ...) @BUG_fl(ptr noundef @.str.16, i32 noundef 519, ptr noundef @.str.51, ptr noundef %37, i32 noundef %40) #12
  unreachable

41:                                               ; preds = %21
  %42 = load ptr, ptr %3, align 8, !tbaa !15
  %43 = load ptr, ptr %5, align 8, !tbaa !133
  %44 = getelementptr inbounds nuw %struct.write_midx_context, ptr %43, i32 0, i32 9
  %45 = load ptr, ptr %44, align 8, !tbaa !85
  %46 = load ptr, ptr %9, align 8, !tbaa !152
  %47 = getelementptr inbounds nuw %struct.pack_midx_entry, ptr %46, i32 0, i32 1
  %48 = load i32, ptr %47, align 4, !tbaa !156
  %49 = zext i32 %48 to i64
  %50 = getelementptr inbounds nuw i32, ptr %45, i64 %49
  %51 = load i32, ptr %50, align 4, !tbaa !11
  call void @hashwrite_be32(ptr noundef %42, i32 noundef %51)
  %52 = load ptr, ptr %5, align 8, !tbaa !133
  %53 = getelementptr inbounds nuw %struct.write_midx_context, ptr %52, i32 0, i32 11
  %54 = load i8, ptr %53, align 8
  %55 = and i8 %54, 1
  %56 = zext i8 %55 to i32
  %57 = icmp ne i32 %56, 0
  br i1 %57, label %58, label %69

58:                                               ; preds = %41
  %59 = load ptr, ptr %9, align 8, !tbaa !152
  %60 = getelementptr inbounds nuw %struct.pack_midx_entry, ptr %59, i32 0, i32 3
  %61 = load i64, ptr %60, align 8, !tbaa !76
  %62 = lshr i64 %61, 31
  %63 = icmp ne i64 %62, 0
  br i1 %63, label %64, label %69

64:                                               ; preds = %58
  %65 = load ptr, ptr %3, align 8, !tbaa !15
  %66 = load i32, ptr %8, align 4, !tbaa !11
  %67 = add i32 %66, 1
  store i32 %67, ptr %8, align 4, !tbaa !11
  %68 = or i32 -2147483648, %66
  call void @hashwrite_be32(ptr noundef %65, i32 noundef %68)
  br label %96

69:                                               ; preds = %58, %41
  %70 = load ptr, ptr %5, align 8, !tbaa !133
  %71 = getelementptr inbounds nuw %struct.write_midx_context, ptr %70, i32 0, i32 11
  %72 = load i8, ptr %71, align 8
  %73 = and i8 %72, 1
  %74 = zext i8 %73 to i32
  %75 = icmp ne i32 %74, 0
  br i1 %75, label %89, label %76

76:                                               ; preds = %69
  %77 = load ptr, ptr %9, align 8, !tbaa !152
  %78 = getelementptr inbounds nuw %struct.pack_midx_entry, ptr %77, i32 0, i32 3
  %79 = load i64, ptr %78, align 8, !tbaa !76
  %80 = lshr i64 %79, 32
  %81 = icmp ne i64 %80, 0
  br i1 %81, label %82, label %89

82:                                               ; preds = %76
  %83 = load ptr, ptr %9, align 8, !tbaa !152
  %84 = getelementptr inbounds nuw %struct.pack_midx_entry, ptr %83, i32 0, i32 0
  %85 = call ptr @oid_to_hex(ptr noundef %84)
  %86 = load ptr, ptr %9, align 8, !tbaa !152
  %87 = getelementptr inbounds nuw %struct.pack_midx_entry, ptr %86, i32 0, i32 3
  %88 = load i64, ptr %87, align 8, !tbaa !76
  call void (ptr, i32, ptr, ...) @BUG_fl(ptr noundef @.str.16, i32 noundef 528, ptr noundef @.str.52, ptr noundef %85, i64 noundef %88) #12
  unreachable

89:                                               ; preds = %76, %69
  %90 = load ptr, ptr %3, align 8, !tbaa !15
  %91 = load ptr, ptr %9, align 8, !tbaa !152
  %92 = getelementptr inbounds nuw %struct.pack_midx_entry, ptr %91, i32 0, i32 3
  %93 = load i64, ptr %92, align 8, !tbaa !76
  %94 = trunc i64 %93 to i32
  call void @hashwrite_be32(ptr noundef %90, i32 noundef %94)
  br label %95

95:                                               ; preds = %89
  br label %96

96:                                               ; preds = %95, %64
  call void @llvm.lifetime.end.p0(i64 8, ptr %9) #11
  br label %97

97:                                               ; preds = %96
  %98 = load i32, ptr %7, align 4, !tbaa !11
  %99 = add i32 %98, 1
  store i32 %99, ptr %7, align 4, !tbaa !11
  br label %14, !llvm.loop !157

100:                                              ; preds = %14
  call void @llvm.lifetime.end.p0(i64 4, ptr %8) #11
  call void @llvm.lifetime.end.p0(i64 4, ptr %7) #11
  call void @llvm.lifetime.end.p0(i64 8, ptr %6) #11
  call void @llvm.lifetime.end.p0(i64 8, ptr %5) #11
  ret i32 0
}