; Function Attrs: nounwind uwtable
define internal noundef i32 @write_midx_object_offsets(ptr noundef %0, ptr noundef readonly captures(none) %1) #0 {
  %3 = alloca i32, align 4
  %4 = alloca i32, align 4
  %5 = alloca i32, align 4
  %6 = getelementptr inbounds nuw i8, ptr %1, i64 64
  %7 = load i64, ptr %6, align 8, !tbaa !79
  %.not40 = icmp eq i64 %7, 0
  br i1 %.not40, label %._crit_edge, label %.lr.ph

.lr.ph:                                           ; preds = %2
  %8 = getelementptr inbounds nuw i8, ptr %1, i64 56
  %9 = load ptr, ptr %8, align 8, !tbaa !78
  %10 = getelementptr inbounds nuw i8, ptr %1, i64 72
  %11 = getelementptr inbounds nuw i8, ptr %1, i64 88
  br label %12

12:                                               ; preds = %.lr.ph, %41
  %.039 = phi ptr [ %9, %.lr.ph ], [ %13, %41 ]
  %.02238 = phi i32 [ 0, %.lr.ph ], [ %.1, %41 ]
  %.02337 = phi i32 [ 0, %.lr.ph ], [ %42, %41 ]
  %13 = getelementptr inbounds nuw i8, ptr %.039, i64 64
  %14 = load ptr, ptr %10, align 8, !tbaa !96
  %15 = getelementptr inbounds nuw i8, ptr %.039, i64 36
  %16 = load i32, ptr %15, align 4, !tbaa !81
  %17 = zext i32 %16 to i64
  %18 = getelementptr inbounds nuw i32, ptr %14, i64 %17
  %19 = load i32, ptr %18, align 4, !tbaa !40
  %20 = icmp eq i32 %19, -1
  br i1 %20, label %21, label %hashwrite_be32.exit

21:                                               ; preds = %12
  %22 = getelementptr inbounds nuw i8, ptr %.039, i64 36
  %23 = call ptr @oid_to_hex(ptr noundef nonnull %.039) #19
  %24 = load i32, ptr %22, align 4, !tbaa !81
  call void (ptr, i32, ptr, ...) @BUG_fl(ptr noundef nonnull @.str.16, i32 noundef 519, ptr noundef nonnull @.str.51, ptr noundef %23, i32 noundef %24) #20
  unreachable

hashwrite_be32.exit:                              ; preds = %12
  call void @llvm.lifetime.start.p0(i64 4, ptr nonnull %5)
  %25 = call i32 asm "bswap $0", "=r,0,~{dirflag},~{fpsr},~{flags}"(i32 %19) #22, !srcloc !117
  store i32 %25, ptr %5, align 4, !tbaa !40
  call void @hashwrite(ptr noundef %0, ptr noundef nonnull %5, i32 noundef 4) #19
  call void @llvm.lifetime.end.p0(i64 4, ptr nonnull %5)
  %26 = load i8, ptr %11, align 8
  %27 = and i8 %26, 1
  %.not = icmp eq i8 %27, 0
  %28 = getelementptr inbounds nuw i8, ptr %.039, i64 48
  %29 = load i64, ptr %28, align 8, !tbaa !85
  br i1 %.not, label %34, label %30

30:                                               ; preds = %hashwrite_be32.exit
  %.not25 = icmp ult i64 %29, 2147483648
  br i1 %.not25, label %hashwrite_be32.exit31, label %hashwrite_be32.exit29

hashwrite_be32.exit29:                            ; preds = %30
  %31 = add i32 %.02238, 1
  call void @llvm.lifetime.start.p0(i64 4, ptr nonnull %4)
  %32 = or i32 %.02238, -2147483648
  %33 = call i32 asm "bswap $0", "=r,0,~{dirflag},~{fpsr},~{flags}"(i32 %32) #22, !srcloc !117
  store i32 %33, ptr %4, align 4, !tbaa !40
  call void @hashwrite(ptr noundef %0, ptr noundef nonnull %4, i32 noundef 4) #19
  call void @llvm.lifetime.end.p0(i64 4, ptr nonnull %4)
  br label %41

34:                                               ; preds = %hashwrite_be32.exit
  %.not27 = icmp ult i64 %29, 4294967296
  br i1 %.not27, label %hashwrite_be32.exit31, label %35

35:                                               ; preds = %34
  %36 = getelementptr inbounds nuw i8, ptr %.039, i64 48
  %37 = call ptr @oid_to_hex(ptr noundef nonnull %.039) #19
  %38 = load i64, ptr %36, align 8, !tbaa !85
  call void (ptr, i32, ptr, ...) @BUG_fl(ptr noundef nonnull @.str.16, i32 noundef 528, ptr noundef nonnull @.str.52, ptr noundef %37, i64 noundef %38) #20
  unreachable

hashwrite_be32.exit31:                            ; preds = %30, %34
  call void @llvm.lifetime.start.p0(i64 4, ptr nonnull %3)
  %39 = trunc nuw i64 %29 to i32
  %40 = call i32 asm "bswap $0", "=r,0,~{dirflag},~{fpsr},~{flags}"(i32 %39) #22, !srcloc !117
  store i32 %40, ptr %3, align 4, !tbaa !40
  call void @hashwrite(ptr noundef %0, ptr noundef nonnull %3, i32 noundef 4) #19
  call void @llvm.lifetime.end.p0(i64 4, ptr nonnull %3)
  br label %41

41:                                               ; preds = %hashwrite_be32.exit31, %hashwrite_be32.exit29
  %.1 = phi i32 [ %31, %hashwrite_be32.exit29 ], [ %.02238, %hashwrite_be32.exit31 ]
  %42 = add i32 %.02337, 1
  %43 = zext i32 %42 to i64
  %44 = load i64, ptr %6, align 8, !tbaa !79
  %45 = icmp ugt i64 %44, %43
  br i1 %45, label %12, label %._crit_edge, !llvm.loop !211

._crit_edge:                                      ; preds = %41, %2
  ret i32 0
}